target datalayout = "e-m:e-p270:32:32-p271:32:32-p272:64:64-i64:64-i128:128-f80:128-n8:16:32:64-S128"
target triple = "x86_64-pc-linux-gnu"

%struct.OSQPMatrix_ = type { ptr, i32 }

@.str = private unnamed_addr constant [14 x i8] c"ERROR in %s: \00", align 1
@.str.2 = private unnamed_addr constant [2 x i8] c"\0A\00", align 1
@__func__.OSQPMatrix_vstack = private unnamed_addr constant [18 x i8] c"OSQPMatrix_vstack\00", align 1
@.str.3 = private unnamed_addr constant [30 x i8] c"Can only vstack full matrices\00", align 1

; Function Attrs: nounwind uwtable
define ptr @OSQPMatrix_vstack(ptr noundef %0, ptr noundef %1) #0 {
  %3 = alloca ptr, align 8
  %4 = alloca ptr, align 8
  %5 = alloca ptr, align 8
  %6 = alloca ptr, align 8
  store ptr %0, ptr %4, align 8
  store ptr %1, ptr %5, align 8
  %7 = load ptr, ptr %4, align 8
  %8 = getelementptr inbounds %struct.OSQPMatrix_, ptr %7, i32 0, i32 1
  %9 = load i32, ptr %8, align 8
  %10 = icmp eq i32 %9, 0
  br i1 %10, label %11, label %41

11:                                               ; preds = %2
  %12 = load ptr, ptr %5, align 8
  %13 = getelementptr inbounds %struct.OSQPMatrix_, ptr %12, i32 0, i32 1
  %14 = load i32, ptr %13, align 8
  %15 = icmp eq i32 %14, 0
  br i1 %15, label %16, label %41

16:                                               ; preds = %11
  %17 = call noalias ptr @malloc(i64 noundef 16) #4
  store ptr %17, ptr %6, align 8
  %18 = load ptr, ptr %6, align 8
  %19 = icmp ne ptr %18, null
  br i1 %19, label %21, label %20

20:                                               ; preds = %16
  store ptr null, ptr %3, align 8
  br label %45

21:                                               ; preds = %16
  %22 = load ptr, ptr %6, align 8
  %23 = getelementptr inbounds %struct.OSQPMatrix_, ptr %22, i32 0, i32 1
  store i32 0, ptr %23, align 8
  %24 = load ptr, ptr %4, align 8
  %25 = getelementptr inbounds %struct.OSQPMatrix_, ptr %24, i32 0, i32 0
  %26 = load ptr, ptr %25, align 8
  %27 = load ptr, ptr %5, align 8
  %28 = getelementptr inbounds %struct.OSQPMatrix_, ptr %27, i32 0, i32 0
  %29 = load ptr, ptr %28, align 8
  %30 = call ptr @vstack(ptr noundef %26, ptr noundef %29)
  %31 = load ptr, ptr %6, align 8
  %32 = getelementptr inbounds %struct.OSQPMatrix_, ptr %31, i32 0, i32 0
  store ptr %30, ptr %32, align 8
  %33 = load ptr, ptr %6, align 8
  %34 = getelementptr inbounds %struct.OSQPMatrix_, ptr %33, i32 0, i32 0
  %35 = load ptr, ptr %34, align 8
  %36 = icmp ne ptr %35, null
  br i1 %36, label %39, label %37

37:                                               ; preds = %21
  %38 = load ptr, ptr %6, align 8
  call void @free(ptr noundef %38) #5
  store ptr null, ptr %3, align 8
  br label %45

39:                                               ; preds = %21
  %40 = load ptr, ptr %6, align 8
  store ptr %40, ptr %3, align 8
  br label %45

41:                                               ; preds = %11, %2
  %42 = call i32 (ptr, ...) @printf(ptr noundef @.str, ptr noundef @__func__.OSQPMatrix_vstack)
  %43 = call i32 (ptr, ...) @printf(ptr noundef @.str.3)
  %44 = call i32 (ptr, ...) @printf(ptr noundef @.str.2)
  store ptr null, ptr %3, align 8
  br label %45

45:                                               ; preds = %41, %39, %37, %20
  %46 = load ptr, ptr %3, align 8
  ret ptr %46
}