; Function Attrs: nounwind uwtable
define noalias noundef ptr @OSQPMatrix_vstack(ptr nocapture noundef readonly %0, ptr nocapture noundef readonly %1) local_unnamed_addr #0 {
  %3 = getelementptr inbounds i8, ptr %0, i64 8
  %4 = load i32, ptr %3, align 8
  %5 = icmp eq i32 %4, 0
  br i1 %5, label %6, label %18

6:                                                ; preds = %2
  %7 = getelementptr inbounds i8, ptr %1, i64 8
  %8 = load i32, ptr %7, align 8
  %9 = icmp eq i32 %8, 0
  br i1 %9, label %10, label %18

10:                                               ; preds = %6
  %11 = tail call noalias dereferenceable_or_null(16) ptr @malloc(i64 noundef 16) #8
  %.not = icmp eq ptr %11, null
  br i1 %.not, label %21, label %12

12:                                               ; preds = %10
  %13 = getelementptr inbounds i8, ptr %11, i64 8
  store i32 0, ptr %13, align 8
  %14 = load ptr, ptr %0, align 8
  %15 = load ptr, ptr %1, align 8
  %16 = tail call ptr @vstack(ptr noundef %14, ptr noundef %15) #7
  store ptr %16, ptr %11, align 8
  %.not12 = icmp eq ptr %16, null
  br i1 %.not12, label %17, label %21

17:                                               ; preds = %12
  tail call void @free(ptr noundef nonnull %11) #7
  br label %21

18:                                               ; preds = %6, %2
  %19 = tail call i32 (ptr, ...) @printf(ptr noundef nonnull dereferenceable(1) @.str, ptr noundef nonnull @__func__.OSQPMatrix_vstack)
  %20 = tail call i32 (ptr, ...) @printf(ptr noundef nonnull dereferenceable(1) @.str.3)
  %putchar = tail call i32 @putchar(i32 10)
  br label %21

21:                                               ; preds = %12, %10, %18, %17
  %.0 = phi ptr [ null, %17 ], [ null, %18 ], [ null, %10 ], [ %11, %12 ]
  ret ptr %.0
}